target datalayout = "e-m:e-p270:32:32-p271:32:32-p272:64:64-i64:64-i128:128-f80:128-n8:16:32:64-S128"
target triple = "x86_64-pc-linux-gnu"

%struct.strbuf = type { i64, i64, ptr }

@.str = private unnamed_addr constant [1 x i8] zeroinitializer, align 1
@advice_use_color = internal global i32 -1, align 4
@stderr = external global ptr, align 8
@__const.vadvise.buf = private unnamed_addr constant %struct.strbuf { i64 0, i64 0, ptr @strbuf_slopbuf }, align 8
@turn_off_instructions = internal constant [60 x i8] c"\0ADisable this message with \22git config set advice.%s false\22\00", align 16
@.str.32 = private unnamed_addr constant [17 x i8] c"%shint:%s%.*s%s\0A\00", align 1
@.str.33 = private unnamed_addr constant [2 x i8] c" \00", align 1
@git_gettext_enabled = external global i32, align 4

; Function Attrs: nounwind uwtable
define internal ptr @advise_get_color(i32 noundef %0) #0 {
  %2 = alloca ptr, align 8
  %3 = alloca i32, align 4
  store i32 %0, ptr %3, align 4, !tbaa !9
  %4 = load i32, ptr @advice_use_color, align 4, !tbaa !9
  %5 = call i32 @want_color_fd(i32 noundef 2, i32 noundef %4)
  %6 = icmp ne i32 %5, 0
  br i1 %6, label %7, label %12

7:                                                ; preds = %1
  %8 = load i32, ptr %3, align 4, !tbaa !9
  %9 = zext i32 %8 to i64
  %10 = getelementptr inbounds nuw [2 x [75 x i8]], ptr @advice_colors, i64 0, i64 %9
  %11 = getelementptr inbounds [75 x i8], ptr %10, i64 0, i64 0
  store ptr %11, ptr %2, align 8
  br label %13

12:                                               ; preds = %1
  store ptr @.str, ptr %2, align 8
  br label %13

13:                                               ; preds = %12, %7
  %14 = load ptr, ptr %2, align 8
  ret ptr %14
}

; Function Attrs: inlinehint nounwind uwtable
define internal ptr @_(ptr noundef %0) #5 {
  %2 = alloca ptr, align 8
  %3 = alloca ptr, align 8
  store ptr %0, ptr %3, align 8, !tbaa !4
  %4 = load ptr, ptr %3, align 8, !tbaa !4
  %5 = load i8, ptr %4, align 1, !tbaa !16
  %6 = icmp ne i8 %5, 0
  br i1 %6, label %8, label %7

7:                                                ; preds = %1
  store ptr @.str, ptr %2, align 8
  br label %16

8:                                                ; preds = %1
  %9 = load i32, ptr @git_gettext_enabled, align 4, !tbaa !9
  %10 = icmp ne i32 %9, 0
  br i1 %10, label %13, label %11

11:                                               ; preds = %8
  %12 = load ptr, ptr %3, align 8, !tbaa !4
  store ptr %12, ptr %2, align 8
  br label %16

13:                                               ; preds = %8
  %14 = load ptr, ptr %3, align 8, !tbaa !4
  %15 = call ptr @dcgettext(ptr noundef null, ptr noundef %14, i32 noundef 5) #10
  store ptr %15, ptr %2, align 8
  br label %16

16:                                               ; preds = %13, %11, %7
  %17 = load ptr, ptr %2, align 8
  ret ptr %17
}

; Function Attrs: nounwind uwtable
define internal void @vadvise(ptr noundef %0, i32 noundef %1, ptr noundef %2, ptr noundef %3) #0 {
  %5 = alloca ptr, align 8
  %6 = alloca i32, align 4
  %7 = alloca ptr, align 8
  %8 = alloca ptr, align 8
  %9 = alloca %struct.strbuf, align 8
  %10 = alloca ptr, align 8
  %11 = alloca ptr, align 8
  store ptr %0, ptr %5, align 8, !tbaa !4
  store i32 %1, ptr %6, align 4, !tbaa !9
  store ptr %2, ptr %7, align 8, !tbaa !4
  store ptr %3, ptr %8, align 8, !tbaa !11
  call void @llvm.lifetime.start.p0(i64 24, ptr %9) #10
  call void @llvm.memcpy.p0.p0.i64(ptr align 8 %9, ptr align 8 @__const.vadvise.buf, i64 24, i1 false)
  call void @llvm.lifetime.start.p0(i64 8, ptr %10) #10
  call void @llvm.lifetime.start.p0(i64 8, ptr %11) #10
  %12 = load ptr, ptr %5, align 8, !tbaa !4
  %13 = load ptr, ptr %8, align 8, !tbaa !11
  call void @strbuf_vaddf(ptr noundef %9, ptr noundef %12, ptr noundef %13)
  %14 = load i32, ptr %6, align 4, !tbaa !9
  %15 = icmp ne i32 %14, 0
  br i1 %15, label %16, label %18

16:                                               ; preds = %4
  %17 = load ptr, ptr %7, align 8, !tbaa !4
  call void (ptr, ptr, ...) @strbuf_addf(ptr noundef %9, ptr noundef @turn_off_instructions, ptr noundef %17)
  br label %18

18:                                               ; preds = %16, %4
  %19 = getelementptr inbounds nuw %struct.strbuf, ptr %9, i32 0, i32 2
  %20 = load ptr, ptr %19, align 8, !tbaa !13
  store ptr %20, ptr %10, align 8, !tbaa !4
  br label %21

21:                                               ; preds = %51, %18
  %22 = load ptr, ptr %10, align 8, !tbaa !4
  %23 = load i8, ptr %22, align 1, !tbaa !16
  %24 = icmp ne i8 %23, 0
  br i1 %24, label %25, label %53

25:                                               ; preds = %21
  %26 = load ptr, ptr %10, align 8, !tbaa !4
  %27 = call ptr @strchrnul(ptr noundef %26, i32 noundef 10) #11
  store ptr %27, ptr %11, align 8, !tbaa !4
  %28 = load ptr, ptr @stderr, align 8, !tbaa !17
  %29 = call ptr @_(ptr noundef @.str.32)
  %30 = call ptr @advise_get_color(i32 noundef 1)
  %31 = load ptr, ptr %11, align 8, !tbaa !4
  %32 = load ptr, ptr %10, align 8, !tbaa !4
  %33 = icmp eq ptr %31, %32
  %34 = select i1 %33, ptr @.str, ptr @.str.33
  %35 = load ptr, ptr %11, align 8, !tbaa !4
  %36 = load ptr, ptr %10, align 8, !tbaa !4
  %37 = ptrtoint ptr %35 to i64
  %38 = ptrtoint ptr %36 to i64
  %39 = sub i64 %37, %38
  %40 = trunc i64 %39 to i32
  %41 = load ptr, ptr %10, align 8, !tbaa !4
  %42 = call ptr @advise_get_color(i32 noundef 0)
  %43 = call i32 (ptr, ptr, ...) @fprintf(ptr noundef %28, ptr noundef %29, ptr noundef %30, ptr noundef %34, i32 noundef %40, ptr noundef %41, ptr noundef %42) #10
  %44 = load ptr, ptr %11, align 8, !tbaa !4
  %45 = load i8, ptr %44, align 1, !tbaa !16
  %46 = icmp ne i8 %45, 0
  br i1 %46, label %47, label %50

47:                                               ; preds = %25
  %48 = load ptr, ptr %11, align 8, !tbaa !4
  %49 = getelementptr inbounds nuw i8, ptr %48, i32 1
  store ptr %49, ptr %11, align 8, !tbaa !4
  br label %50

50:                                               ; preds = %47, %25
  br label %51

51:                                               ; preds = %50
  %52 = load ptr, ptr %11, align 8, !tbaa !4
  store ptr %52, ptr %10, align 8, !tbaa !4
  br label %21, !llvm.loop !19

53:                                               ; preds = %21
  call void @strbuf_release(ptr noundef %9)
  call void @llvm.lifetime.end.p0(i64 8, ptr %11) #10
  call void @llvm.lifetime.end.p0(i64 8, ptr %10) #10
  call void @llvm.lifetime.end.p0(i64 24, ptr %9) #10
  ret void
}