; Function Attrs: nounwind uwtable
define internal fastcc void @vadvise(ptr noundef %0, i32 noundef range(i32 0, 2) %1, ptr noundef %2, ptr noundef nonnull %3) unnamed_addr #0 {
  %5 = alloca %struct.strbuf, align 8
  call void @llvm.lifetime.start.p0(i64 24, ptr nonnull %5) #12
  call void @llvm.memcpy.p0.p0.i64(ptr noundef nonnull align 8 dereferenceable(24) %5, ptr noundef nonnull align 8 dereferenceable(24) @__const.vadvise.buf, i64 24, i1 false)
  call void @strbuf_vaddf(ptr noundef nonnull %5, ptr noundef %0, ptr noundef nonnull %3) #12
  %.not = icmp eq i32 %1, 0
  br i1 %.not, label %7, label %6

6:                                                ; preds = %4
  call void (ptr, ptr, ...) @strbuf_addf(ptr noundef nonnull %5, ptr noundef nonnull @turn_off_instructions, ptr noundef %2) #12
  br label %7

7:                                                ; preds = %6, %4
  %8 = getelementptr inbounds nuw i8, ptr %5, i64 16
  %9 = load ptr, ptr %8, align 8, !tbaa !4
  %10 = load i8, ptr %9, align 1, !tbaa !11
  %.not1419 = icmp eq i8 %10, 0
  br i1 %.not1419, label %._crit_edge, label %.lr.ph

.lr.ph:                                           ; preds = %7, %_.exit
  %.01320 = phi ptr [ %spec.select, %_.exit ], [ %9, %7 ]
  %11 = call ptr @strchrnul(ptr noundef nonnull %.01320, i32 noundef 10) #13
  %12 = load ptr, ptr @stderr, align 8, !tbaa !12
  %13 = load i32, ptr @git_gettext_enabled, align 4, !tbaa !14
  %.not4.i = icmp eq i32 %13, 0
  br i1 %.not4.i, label %_.exit, label %14

14:                                               ; preds = %.lr.ph
  %15 = call ptr @dcgettext(ptr noundef null, ptr noundef nonnull @.str.32, i32 noundef 5) #12
  br label %_.exit

_.exit:                                           ; preds = %.lr.ph, %14
  %.0.i = phi ptr [ %15, %14 ], [ @.str.32, %.lr.ph ]
  %16 = load i32, ptr @advice_use_color, align 4, !tbaa !14
  %17 = call i32 @want_color_fd(i32 noundef 2, i32 noundef %16) #12
  %.not.i = icmp eq i32 %17, 0
  %.0.i16 = select i1 %.not.i, ptr @.str, ptr getelementptr inbounds nuw (i8, ptr @advice_colors, i64 75)
  %18 = icmp eq ptr %11, %.01320
  %19 = select i1 %18, ptr @.str, ptr @.str.33
  %20 = ptrtoint ptr %11 to i64
  %21 = ptrtoint ptr %.01320 to i64
  %22 = sub i64 %20, %21
  %23 = trunc i64 %22 to i32
  %24 = load i32, ptr @advice_use_color, align 4, !tbaa !14
  %25 = call i32 @want_color_fd(i32 noundef 2, i32 noundef %24) #12
  %.not.i17 = icmp eq i32 %25, 0
  %.0.i18 = select i1 %.not.i17, ptr @.str, ptr @advice_colors
  %26 = call i32 (ptr, ptr, ...) @fprintf(ptr noundef %12, ptr noundef %.0.i, ptr noundef nonnull %.0.i16, ptr noundef nonnull %19, i32 noundef %23, ptr noundef nonnull %.01320, ptr noundef nonnull %.0.i18) #14
  %27 = load i8, ptr %11, align 1, !tbaa !11
  %.not15 = icmp ne i8 %27, 0
  %spec.select.idx = zext i1 %.not15 to i64
  %spec.select = getelementptr inbounds nuw i8, ptr %11, i64 %spec.select.idx
  %28 = load i8, ptr %spec.select, align 1, !tbaa !11
  %.not14 = icmp eq i8 %28, 0
  br i1 %.not14, label %._crit_edge, label %.lr.ph, !llvm.loop !16

._crit_edge:                                      ; preds = %_.exit, %7
  call void @strbuf_release(ptr noundef nonnull %5) #12
  call void @llvm.lifetime.end.p0(i64 24, ptr nonnull %5) #12
  ret void
}